; ModuleID = '9/1572.c'
source_filename = "9/1572.c"
target datalayout = "e-m:e-p270:32:32-p271:32:32-p272:64:64-i64:64-f80:128-n8:16:32:64-S128"
target triple = "x86_64-pc-linux-gnu"

%struct.patient = type { [100 x i8], i32 }

@pat1 = common dso_local global [110 x %struct.patient] zeroinitializer, align 16
@.str = private unnamed_addr constant [3 x i8] c"%d\00", align 1
@.str.1 = private unnamed_addr constant [6 x i8] c"%s %d\00", align 1
@pat = common dso_local global [110 x %struct.patient] zeroinitializer, align 16
@.str.2 = private unnamed_addr constant [4 x i8] c"%s\0A\00", align 1

; Function Attrs: noinline nounwind uwtable
define dso_local void @bubble(i32 %0) #0 {
  %2 = alloca i32, align 4
  %3 = alloca i32, align 4
  %4 = alloca i32, align 4
  %5 = alloca %struct.patient, align 4
  store i32 %0, i32* %2, align 4
  store i32 1, i32* %3, align 4
  br label %6

6:                                                ; preds = %56, %1
  %7 = load i32, i32* %3, align 4
  %8 = load i32, i32* %2, align 4
  %9 = icmp slt i32 %7, %8
  br i1 %9, label %10, label %59

10:                                               ; preds = %6
  store i32 0, i32* %4, align 4
  br label %11

11:                                               ; preds = %52, %10
  %12 = load i32, i32* %4, align 4
  %13 = load i32, i32* %2, align 4
  %14 = load i32, i32* %3, align 4
  %15 = sub nsw i32 %13, %14
  %16 = icmp slt i32 %12, %15
  br i1 %16, label %17, label %55

17:                                               ; preds = %11
  %18 = load i32, i32* %4, align 4
  %19 = sext i32 %18 to i64
  %20 = getelementptr inbounds [110 x %struct.patient], [110 x %struct.patient]* @pat1, i64 0, i64 %19
  %21 = getelementptr inbounds %struct.patient, %struct.patient* %20, i32 0, i32 1
  %22 = load i32, i32* %21, align 4
  %23 = load i32, i32* %4, align 4
  %24 = add nsw i32 %23, 1
  %25 = sext i32 %24 to i64
  %26 = getelementptr inbounds [110 x %struct.patient], [110 x %struct.patient]* @pat1, i64 0, i64 %25
  %27 = getelementptr inbounds %struct.patient, %struct.patient* %26, i32 0, i32 1
  %28 = load i32, i32* %27, align 4
  %29 = icmp slt i32 %22, %28
  br i1 %29, label %30, label %51

30:                                               ; preds = %17
  %31 = load i32, i32* %4, align 4
  %32 = sext i32 %31 to i64
  %33 = getelementptr inbounds [110 x %struct.patient], [110 x %struct.patient]* @pat1, i64 0, i64 %32
  %34 = bitcast %struct.patient* %5 to i8*
  %35 = bitcast %struct.patient* %33 to i8*
  call void @llvm.memcpy.p0i8.p0i8.i64(i8* align 4 %34, i8* align 8 %35, i64 104, i1 false)
  %36 = load i32, i32* %4, align 4
  %37 = sext i32 %36 to i64
  %38 = getelementptr inbounds [110 x %struct.patient], [110 x %struct.patient]* @pat1, i64 0, i64 %37
  %39 = load i32, i32* %4, align 4
  %40 = add nsw i32 %39, 1
  %41 = sext i32 %40 to i64
  %42 = getelementptr inbounds [110 x %struct.patient], [110 x %struct.patient]* @pat1, i64 0, i64 %41
  %43 = bitcast %struct.patient* %38 to i8*
  %44 = bitcast %struct.patient* %42 to i8*
  call void @llvm.memcpy.p0i8.p0i8.i64(i8* align 8 %43, i8* align 8 %44, i64 104, i1 false)
  %45 = load i32, i32* %4, align 4
  %46 = add nsw i32 %45, 1
  %47 = sext i32 %46 to i64
  %48 = getelementptr inbounds [110 x %struct.patient], [110 x %struct.patient]* @pat1, i64 0, i64 %47
  %49 = bitcast %struct.patient* %48 to i8*
  %50 = bitcast %struct.patient* %5 to i8*
  call void @llvm.memcpy.p0i8.p0i8.i64(i8* align 8 %49, i8* align 4 %50, i64 104, i1 false)
  br label %51

51:                                               ; preds = %30, %17
  br label %52

52:                                               ; preds = %51
  %53 = load i32, i32* %4, align 4
  %54 = add nsw i32 %53, 1
  store i32 %54, i32* %4, align 4
  br label %11

55:                                               ; preds = %11
  br label %56

56:                                               ; preds = %55
  %57 = load i32, i32* %3, align 4
  %58 = add nsw i32 %57, 1
  store i32 %58, i32* %3, align 4
  br label %6

59:                                               ; preds = %6
  ret void
}

; Function Attrs: argmemonly nounwind willreturn
declare void @llvm.memcpy.p0i8.p0i8.i64(i8* noalias nocapture writeonly, i8* noalias nocapture readonly, i64, i1 immarg) #1

; Function Attrs: noinline nounwind uwtable
define dso_local void @main() #0 {
  %1 = alloca i32, align 4
  %2 = alloca i32, align 4
  %3 = alloca i32, align 4
  store i32 0, i32* %3, align 4
  %4 = call i32 (i8*, ...) @__isoc99_scanf(i8* getelementptr inbounds ([3 x i8], [3 x i8]* @.str, i64 0, i64 0), i32* %1)
  store i32 0, i32* %2, align 4
  br label %5

5:                                                ; preds = %37, %0
  %6 = load i32, i32* %2, align 4
  %7 = load i32, i32* %1, align 4
  %8 = icmp slt i32 %6, %7
  br i1 %8, label %9, label %40

9:                                                ; preds = %5
  %10 = load i32, i32* %2, align 4
  %11 = sext i32 %10 to i64
  %12 = getelementptr inbounds [110 x %struct.patient], [110 x %struct.patient]* @pat, i64 0, i64 %11
  %13 = getelementptr inbounds %struct.patient, %struct.patient* %12, i32 0, i32 0
  %14 = getelementptr inbounds [100 x i8], [100 x i8]* %13, i64 0, i64 0
  %15 = load i32, i32* %2, align 4
  %16 = sext i32 %15 to i64
  %17 = getelementptr inbounds [110 x %struct.patient], [110 x %struct.patient]* @pat, i64 0, i64 %16
  %18 = getelementptr inbounds %struct.patient, %struct.patient* %17, i32 0, i32 1
  %19 = call i32 (i8*, ...) @__isoc99_scanf(i8* getelementptr inbounds ([6 x i8], [6 x i8]* @.str.1, i64 0, i64 0), i8* %14, i32* %18)
  %20 = load i32, i32* %2, align 4
  %21 = sext i32 %20 to i64
  %22 = getelementptr inbounds [110 x %struct.patient], [110 x %struct.patient]* @pat, i64 0, i64 %21
  %23 = getelementptr inbounds %struct.patient, %struct.patient* %22, i32 0, i32 1
  %24 = load i32, i32* %23, align 4
  %25 = icmp sge i32 %24, 60
  br i1 %25, label %26, label %36

26:                                               ; preds = %9
  %27 = load i32, i32* %3, align 4
  %28 = add nsw i32 %27, 1
  store i32 %28, i32* %3, align 4
  %29 = sext i32 %27 to i64
  %30 = getelementptr inbounds [110 x %struct.patient], [110 x %struct.patient]* @pat1, i64 0, i64 %29
  %31 = load i32, i32* %2, align 4
  %32 = sext i32 %31 to i64
  %33 = getelementptr inbounds [110 x %struct.patient], [110 x %struct.patient]* @pat, i64 0, i64 %32
  %34 = bitcast %struct.patient* %30 to i8*
  %35 = bitcast %struct.patient* %33 to i8*
  call void @llvm.memcpy.p0i8.p0i8.i64(i8* align 8 %34, i8* align 8 %35, i64 104, i1 false)
  br label %36

36:                                               ; preds = %26, %9
  br label %37

37:                                               ; preds = %36
  %38 = load i32, i32* %2, align 4
  %39 = add nsw i32 %38, 1
  store i32 %39, i32* %2, align 4
  br label %5

40:                                               ; preds = %5
  %41 = load i32, i32* %3, align 4
  call void @bubble(i32 %41)
  store i32 0, i32* %2, align 4
  br label %42

42:                                               ; preds = %53, %40
  %43 = load i32, i32* %2, align 4
  %44 = load i32, i32* %3, align 4
  %45 = icmp slt i32 %43, %44
  br i1 %45, label %46, label %56

46:                                               ; preds = %42
  %47 = load i32, i32* %2, align 4
  %48 = sext i32 %47 to i64
  %49 = getelementptr inbounds [110 x %struct.patient], [110 x %struct.patient]* @pat1, i64 0, i64 %48
  %50 = getelementptr inbounds %struct.patient, %struct.patient* %49, i32 0, i32 0
  %51 = getelementptr inbounds [100 x i8], [100 x i8]* %50, i64 0, i64 0
  %52 = call i32 (i8*, ...) @printf(i8* getelementptr inbounds ([4 x i8], [4 x i8]* @.str.2, i64 0, i64 0), i8* %51)
  br label %53

53:                                               ; preds = %46
  %54 = load i32, i32* %2, align 4
  %55 = add nsw i32 %54, 1
  store i32 %55, i32* %2, align 4
  br label %42

56:                                               ; preds = %42
  store i32 0, i32* %2, align 4
  br label %57

57:                                               ; preds = %76, %56
  %58 = load i32, i32* %2, align 4
  %59 = load i32, i32* %1, align 4
  %60 = icmp slt i32 %58, %59
  br i1 %60, label %61, label %79

61:                                               ; preds = %57
  %62 = load i32, i32* %2, align 4
  %63 = sext i32 %62 to i64
  %64 = getelementptr inbounds [110 x %struct.patient], [110 x %struct.patient]* @pat, i64 0, i64 %63
  %65 = getelementptr inbounds %struct.patient, %struct.patient* %64, i32 0, i32 1
  %66 = load i32, i32* %65, align 4
  %67 = icmp slt i32 %66, 60
  br i1 %67, label %68, label %75

68:                                               ; preds = %61
  %69 = load i32, i32* %2, align 4
  %70 = sext i32 %69 to i64
  %71 = getelementptr inbounds [110 x %struct.patient], [110 x %struct.patient]* @pat, i64 0, i64 %70
  %72 = getelementptr inbounds %struct.patient, %struct.patient* %71, i32 0, i32 0
  %73 = getelementptr inbounds [100 x i8], [100 x i8]* %72, i64 0, i64 0
  %74 = call i32 (i8*, ...) @printf(i8* getelementptr inbounds ([4 x i8], [4 x i8]* @.str.2, i64 0, i64 0), i8* %73)
  br label %75

75:                                               ; preds = %68, %61
  br label %76

76:                                               ; preds = %75
  %77 = load i32, i32* %2, align 4
  %78 = add nsw i32 %77, 1
  store i32 %78, i32* %2, align 4
  br label %57

79:                                               ; preds = %57
  ret void
}

declare dso_local i32 @__isoc99_scanf(i8*, ...) #2

declare dso_local i32 @printf(i8*, ...) #2


!llvm.module.flags = !{!0}
!llvm.ident = !{!1}

!0 = !{i32 1, !"wchar_size", i32 4}
!1 = !{!"clang version 10.0.0-4ubuntu1 "}
